target datalayout = "e-m:e-p270:32:32-p271:32:32-p272:64:64-i64:64-i128:128-f80:128-n8:16:32:64-S128"
target triple = "x86_64-pc-linux-gnu"

%class.inputStream = type { ptr, ptr, i32, i8, ptr, i64, i64, i64, i64, i64, i64, [240 x i8] }

; Function Attrs: mustprogress nounwind uwtable
define hidden void @_ZN11inputStream12clear_bufferEv(ptr noundef nonnull align 8 dereferenceable(320) %0) #1 align 2 {
  %2 = alloca ptr, align 8
  store ptr %0, ptr %2, align 8
  %3 = load ptr, ptr %2, align 8
  %4 = getelementptr inbounds %class.inputStream, ptr %3, i32 0, i32 9
  store i64 0, ptr %4, align 8
  %5 = getelementptr inbounds %class.inputStream, ptr %3, i32 0, i32 8
  store i64 0, ptr %5, align 8
  %6 = getelementptr inbounds %class.inputStream, ptr %3, i32 0, i32 7
  store i64 0, ptr %6, align 8
  %7 = getelementptr inbounds %class.inputStream, ptr %3, i32 0, i32 6
  store i64 0, ptr %7, align 8
  %8 = getelementptr inbounds %class.inputStream, ptr %3, i32 0, i32 3
  store i8 0, ptr %8, align 4
  ret void
}

; Function Attrs: mustprogress nounwind uwtable
define hidden void @_ZN11inputStream9set_inputEPNS_5InputE(ptr noundef nonnull align 8 dereferenceable(320) %0, ptr noundef %1) #1 align 2 {
  %3 = alloca ptr, align 8
  %4 = alloca ptr, align 8
  store ptr %0, ptr %3, align 8
  store ptr %1, ptr %4, align 8
  %5 = load ptr, ptr %3, align 8
  call void @_ZN11inputStream12clear_bufferEv(ptr noundef nonnull align 8 dereferenceable(320) %5)
  %6 = load ptr, ptr %4, align 8
  %7 = getelementptr inbounds %class.inputStream, ptr %5, i32 0, i32 1
  store ptr %6, ptr %7, align 8
  %8 = getelementptr inbounds %class.inputStream, ptr %5, i32 0, i32 2
  store i32 0, ptr %8, align 8
  ret void
}